; ModuleID = '21/1173.c'
source_filename = "21/1173.c"
target datalayout = "e-m:e-p270:32:32-p271:32:32-p272:64:64-i64:64-f80:128-n8:16:32:64-S128"
target triple = "x86_64-pc-linux-gnu"

@.str = private unnamed_addr constant [3 x i8] c"%d\00", align 1
@.str.1 = private unnamed_addr constant [4 x i8] c",%d\00", align 1

; Function Attrs: noinline nounwind uwtable
define dso_local i32 @main() #0 {
  %1 = alloca i32, align 4
  %2 = alloca i32, align 4
  %3 = alloca i32, align 4
  %4 = alloca i32, align 4
  %5 = alloca i32, align 4
  %6 = alloca [300 x i32], align 16
  %7 = alloca i32, align 4
  %8 = alloca [300 x i32], align 16
  %9 = alloca i32, align 4
  %10 = alloca double, align 8
  %11 = alloca [300 x double], align 16
  %12 = alloca double, align 8
  store i32 0, i32* %1, align 4
  store i32 0, i32* %2, align 4
  store i32 0, i32* %7, align 4
  store double 0.000000e+00, double* %12, align 8
  %13 = call i32 (i8*, ...) @__isoc99_scanf(i8* getelementptr inbounds ([3 x i8], [3 x i8]* @.str, i64 0, i64 0), i32* %3)
  store i32 0, i32* %4, align 4
  br label %14

14:                                               ; preds = %29, %0
  %15 = load i32, i32* %4, align 4
  %16 = load i32, i32* %3, align 4
  %17 = icmp slt i32 %15, %16
  br i1 %17, label %18, label %32

18:                                               ; preds = %14
  %19 = load i32, i32* %4, align 4
  %20 = sext i32 %19 to i64
  %21 = getelementptr inbounds [300 x i32], [300 x i32]* %6, i64 0, i64 %20
  %22 = call i32 (i8*, ...) @__isoc99_scanf(i8* getelementptr inbounds ([3 x i8], [3 x i8]* @.str, i64 0, i64 0), i32* %21)
  %23 = load i32, i32* %4, align 4
  %24 = sext i32 %23 to i64
  %25 = getelementptr inbounds [300 x i32], [300 x i32]* %6, i64 0, i64 %24
  %26 = load i32, i32* %25, align 4
  %27 = load i32, i32* %7, align 4
  %28 = add nsw i32 %27, %26
  store i32 %28, i32* %7, align 4
  br label %29

29:                                               ; preds = %18
  %30 = load i32, i32* %4, align 4
  %31 = add nsw i32 %30, 1
  store i32 %31, i32* %4, align 4
  br label %14

32:                                               ; preds = %14
  %33 = load i32, i32* %7, align 4
  %34 = sitofp i32 %33 to double
  %35 = load i32, i32* %3, align 4
  %36 = sitofp i32 %35 to double
  %37 = fdiv double %34, %36
  store double %37, double* %10, align 8
  store i32 0, i32* %4, align 4
  br label %38

38:                                               ; preds = %66, %32
  %39 = load i32, i32* %4, align 4
  %40 = load i32, i32* %3, align 4
  %41 = icmp slt i32 %39, %40
  br i1 %41, label %42, label %69

42:                                               ; preds = %38
  %43 = load i32, i32* %4, align 4
  %44 = sext i32 %43 to i64
  %45 = getelementptr inbounds [300 x i32], [300 x i32]* %6, i64 0, i64 %44
  %46 = load i32, i32* %45, align 4
  %47 = sitofp i32 %46 to double
  %48 = load double, double* %10, align 8
  %49 = fsub double %47, %48
  %50 = call double @llvm.fabs.f64(double %49)
  %51 = load i32, i32* %4, align 4
  %52 = sext i32 %51 to i64
  %53 = getelementptr inbounds [300 x double], [300 x double]* %11, i64 0, i64 %52
  store double %50, double* %53, align 8
  %54 = load i32, i32* %4, align 4
  %55 = sext i32 %54 to i64
  %56 = getelementptr inbounds [300 x double], [300 x double]* %11, i64 0, i64 %55
  %57 = load double, double* %56, align 8
  %58 = load double, double* %12, align 8
  %59 = fcmp ogt double %57, %58
  br i1 %59, label %60, label %65

60:                                               ; preds = %42
  %61 = load i32, i32* %4, align 4
  %62 = sext i32 %61 to i64
  %63 = getelementptr inbounds [300 x double], [300 x double]* %11, i64 0, i64 %62
  %64 = load double, double* %63, align 8
  store double %64, double* %12, align 8
  br label %65

65:                                               ; preds = %60, %42
  br label %66

66:                                               ; preds = %65
  %67 = load i32, i32* %4, align 4
  %68 = add nsw i32 %67, 1
  store i32 %68, i32* %4, align 4
  br label %38

69:                                               ; preds = %38
  store i32 0, i32* %4, align 4
  br label %70

70:                                               ; preds = %91, %69
  %71 = load i32, i32* %4, align 4
  %72 = load i32, i32* %3, align 4
  %73 = icmp slt i32 %71, %72
  br i1 %73, label %74, label %94

74:                                               ; preds = %70
  %75 = load i32, i32* %4, align 4
  %76 = sext i32 %75 to i64
  %77 = getelementptr inbounds [300 x double], [300 x double]* %11, i64 0, i64 %76
  %78 = load double, double* %77, align 8
  %79 = load double, double* %12, align 8
  %80 = fcmp oeq double %78, %79
  br i1 %80, label %81, label %90

81:                                               ; preds = %74
  %82 = load i32, i32* %4, align 4
  %83 = sext i32 %82 to i64
  %84 = getelementptr inbounds [300 x i32], [300 x i32]* %6, i64 0, i64 %83
  %85 = load i32, i32* %84, align 4
  %86 = load i32, i32* %2, align 4
  %87 = add nsw i32 %86, 1
  store i32 %87, i32* %2, align 4
  %88 = sext i32 %86 to i64
  %89 = getelementptr inbounds [300 x i32], [300 x i32]* %8, i64 0, i64 %88
  store i32 %85, i32* %89, align 4
  br label %90

90:                                               ; preds = %81, %74
  br label %91

91:                                               ; preds = %90
  %92 = load i32, i32* %4, align 4
  %93 = add nsw i32 %92, 1
  store i32 %93, i32* %4, align 4
  br label %70

94:                                               ; preds = %70
  store i32 1, i32* %5, align 4
  br label %95

95:                                               ; preds = %140, %94
  %96 = load i32, i32* %5, align 4
  %97 = load i32, i32* %2, align 4
  %98 = icmp slt i32 %96, %97
  br i1 %98, label %99, label %143

99:                                               ; preds = %95
  store i32 0, i32* %4, align 4
  br label %100

100:                                              ; preds = %136, %99
  %101 = load i32, i32* %4, align 4
  %102 = load i32, i32* %2, align 4
  %103 = load i32, i32* %5, align 4
  %104 = sub nsw i32 %102, %103
  %105 = icmp slt i32 %101, %104
  br i1 %105, label %106, label %139

106:                                              ; preds = %100
  %107 = load i32, i32* %4, align 4
  %108 = sext i32 %107 to i64
  %109 = getelementptr inbounds [300 x i32], [300 x i32]* %8, i64 0, i64 %108
  %110 = load i32, i32* %109, align 4
  %111 = load i32, i32* %4, align 4
  %112 = add nsw i32 %111, 1
  %113 = sext i32 %112 to i64
  %114 = getelementptr inbounds [300 x i32], [300 x i32]* %8, i64 0, i64 %113
  %115 = load i32, i32* %114, align 4
  %116 = icmp sgt i32 %110, %115
  br i1 %116, label %117, label %135

117:                                              ; preds = %106
  %118 = load i32, i32* %4, align 4
  %119 = sext i32 %118 to i64
  %120 = getelementptr inbounds [300 x i32], [300 x i32]* %8, i64 0, i64 %119
  %121 = load i32, i32* %120, align 4
  store i32 %121, i32* %9, align 4
  %122 = load i32, i32* %4, align 4
  %123 = add nsw i32 %122, 1
  %124 = sext i32 %123 to i64
  %125 = getelementptr inbounds [300 x i32], [300 x i32]* %8, i64 0, i64 %124
  %126 = load i32, i32* %125, align 4
  %127 = load i32, i32* %4, align 4
  %128 = sext i32 %127 to i64
  %129 = getelementptr inbounds [300 x i32], [300 x i32]* %8, i64 0, i64 %128
  store i32 %126, i32* %129, align 4
  %130 = load i32, i32* %9, align 4
  %131 = load i32, i32* %4, align 4
  %132 = add nsw i32 %131, 1
  %133 = sext i32 %132 to i64
  %134 = getelementptr inbounds [300 x i32], [300 x i32]* %8, i64 0, i64 %133
  store i32 %130, i32* %134, align 4
  br label %135

135:                                              ; preds = %117, %106
  br label %136

136:                                              ; preds = %135
  %137 = load i32, i32* %4, align 4
  %138 = add nsw i32 %137, 1
  store i32 %138, i32* %4, align 4
  br label %100

139:                                              ; preds = %100
  br label %140

140:                                              ; preds = %139
  %141 = load i32, i32* %5, align 4
  %142 = add nsw i32 %141, 1
  store i32 %142, i32* %5, align 4
  br label %95

143:                                              ; preds = %95
  %144 = getelementptr inbounds [300 x i32], [300 x i32]* %8, i64 0, i64 0
  %145 = load i32, i32* %144, align 16
  %146 = call i32 (i8*, ...) @printf(i8* getelementptr inbounds ([3 x i8], [3 x i8]* @.str, i64 0, i64 0), i32 %145)
  store i32 1, i32* %4, align 4
  br label %147

147:                                              ; preds = %157, %143
  %148 = load i32, i32* %4, align 4
  %149 = load i32, i32* %2, align 4
  %150 = icmp slt i32 %148, %149
  br i1 %150, label %151, label %160

151:                                              ; preds = %147
  %152 = load i32, i32* %4, align 4
  %153 = sext i32 %152 to i64
  %154 = getelementptr inbounds [300 x i32], [300 x i32]* %8, i64 0, i64 %153
  %155 = load i32, i32* %154, align 4
  %156 = call i32 (i8*, ...) @printf(i8* getelementptr inbounds ([4 x i8], [4 x i8]* @.str.1, i64 0, i64 0), i32 %155)
  br label %157

157:                                              ; preds = %151
  %158 = load i32, i32* %4, align 4
  %159 = add nsw i32 %158, 1
  store i32 %159, i32* %4, align 4
  br label %147

160:                                              ; preds = %147
  ret i32 0
}

declare dso_local i32 @__isoc99_scanf(i8*, ...) #1

; Function Attrs: nounwind readnone speculatable willreturn
declare double @llvm.fabs.f64(double) #2

declare dso_local i32 @printf(i8*, ...) #1


!llvm.module.flags = !{!0}
!llvm.ident = !{!1}

!0 = !{i32 1, !"wchar_size", i32 4}
!1 = !{!"clang version 10.0.0-4ubuntu1 "}
